; Function Attrs: mustprogress nofree norecurse nosync nounwind willreturn memory(read, inaccessiblemem: none) uwtable
define noundef zeroext i1 @_ZNK3gmx18nonbonded_verlet_t23isDynamicPruningStepCpuEl(ptr noundef nonnull readonly align 8 captures(none) dereferenceable(64) %0, i64 noundef %1) local_unnamed_addr #0 align 2 {
  %3 = load ptr, ptr %0, align 8, !tbaa !66
  %4 = getelementptr inbounds nuw i8, ptr %3, i64 17
  %5 = load i8, ptr %4, align 1, !tbaa !68, !range !41, !noundef !42
  %6 = trunc nuw i8 %5 to i1
  br i1 %6, label %7, label %_ZNK3gmx12PairlistSets23isDynamicPruningStepCpuEl.exit

7:                                                ; preds = %2
  %8 = getelementptr inbounds nuw i8, ptr %3, i64 56
  %9 = load i64, ptr %8, align 8, !tbaa !80
  %10 = sub nsw i64 %1, %9
  %11 = trunc i64 %10 to i32
  %12 = getelementptr inbounds nuw i8, ptr %3, i64 24
  %13 = load i32, ptr %12, align 8, !tbaa !81
  %14 = srem i32 %11, %13
  %15 = icmp eq i32 %14, 0
  br label %_ZNK3gmx12PairlistSets23isDynamicPruningStepCpuEl.exit

_ZNK3gmx12PairlistSets23isDynamicPruningStepCpuEl.exit: ; preds = %2, %7
  %16 = phi i1 [ false, %2 ], [ %15, %7 ]
  ret i1 %16
}